target datalayout = "e-m:e-p270:32:32-p271:32:32-p272:64:64-i64:64-i128:128-f80:128-n8:16:32:64-S128"
target triple = "x86_64-pc-linux-gnu"

%struct.gres_job_state = type { i32, ptr, i16, i16, i64, i64, i64, i64, i64, i16, i16, i64, i32, ptr, ptr, ptr, ptr, i32, i64, i32, ptr, ptr, ptr, ptr, ptr, ptr }
%struct.gres_state = type { i32, i32, ptr, ptr, i32 }

; Function Attrs: nounwind uwtable
define internal i32 @_get_req_gres(ptr noundef %0, ptr noundef %1) #0 {
  %3 = alloca i32, align 4
  %4 = alloca ptr, align 8
  %5 = alloca ptr, align 8
  %6 = alloca ptr, align 8
  %7 = alloca ptr, align 8
  %8 = alloca ptr, align 8
  %9 = alloca i32, align 4
  store ptr %0, ptr %4, align 8
  store ptr %1, ptr %5, align 8
  call void @llvm.lifetime.start.p0(i64 8, ptr %6) #13
  %10 = load ptr, ptr %4, align 8
  store ptr %10, ptr %6, align 8
  call void @llvm.lifetime.start.p0(i64 8, ptr %7) #13
  %11 = load ptr, ptr %5, align 8
  store ptr %11, ptr %7, align 8
  call void @llvm.lifetime.start.p0(i64 8, ptr %8) #13
  %12 = load ptr, ptr %6, align 8
  %13 = getelementptr inbounds nuw %struct.gres_state, ptr %12, i32 0, i32 2
  %14 = load ptr, ptr %13, align 8
  store ptr %14, ptr %8, align 8
  %15 = load ptr, ptr %8, align 8
  %16 = getelementptr inbounds nuw %struct.gres_job_state, ptr %15, i32 0, i32 8
  %17 = load i64, ptr %16, align 8
  %18 = icmp ne i64 %17, 0
  br i1 %18, label %20, label %19

19:                                               ; preds = %2
  store i32 0, ptr %3, align 4
  store i32 1, ptr %9, align 4
  br label %68

20:                                               ; preds = %2
  %21 = load ptr, ptr %7, align 8
  %22 = getelementptr inbounds nuw %struct.gres_job_state, ptr %21, i32 0, i32 8
  %23 = load i64, ptr %22, align 8
  %24 = load ptr, ptr %8, align 8
  %25 = getelementptr inbounds nuw %struct.gres_job_state, ptr %24, i32 0, i32 8
  %26 = load i64, ptr %25, align 8
  %27 = icmp ugt i64 %23, %26
  br i1 %27, label %28, label %32

28:                                               ; preds = %20
  %29 = load ptr, ptr %7, align 8
  %30 = getelementptr inbounds nuw %struct.gres_job_state, ptr %29, i32 0, i32 8
  %31 = load i64, ptr %30, align 8
  br label %36

32:                                               ; preds = %20
  %33 = load ptr, ptr %8, align 8
  %34 = getelementptr inbounds nuw %struct.gres_job_state, ptr %33, i32 0, i32 8
  %35 = load i64, ptr %34, align 8
  br label %36

36:                                               ; preds = %32, %28
  %37 = phi i64 [ %31, %28 ], [ %35, %32 ]
  %38 = load ptr, ptr %7, align 8
  %39 = getelementptr inbounds nuw %struct.gres_job_state, ptr %38, i32 0, i32 8
  store i64 %37, ptr %39, align 8
  %40 = load ptr, ptr %8, align 8
  %41 = getelementptr inbounds nuw %struct.gres_job_state, ptr %40, i32 0, i32 4
  %42 = load i64, ptr %41, align 8
  %43 = load ptr, ptr %7, align 8
  %44 = getelementptr inbounds nuw %struct.gres_job_state, ptr %43, i32 0, i32 4
  %45 = load i64, ptr %44, align 8
  %46 = add i64 %45, %42
  store i64 %46, ptr %44, align 8
  %47 = load ptr, ptr %8, align 8
  %48 = getelementptr inbounds nuw %struct.gres_job_state, ptr %47, i32 0, i32 5
  %49 = load i64, ptr %48, align 8
  %50 = load ptr, ptr %7, align 8
  %51 = getelementptr inbounds nuw %struct.gres_job_state, ptr %50, i32 0, i32 5
  %52 = load i64, ptr %51, align 8
  %53 = add i64 %52, %49
  store i64 %53, ptr %51, align 8
  %54 = load ptr, ptr %8, align 8
  %55 = getelementptr inbounds nuw %struct.gres_job_state, ptr %54, i32 0, i32 6
  %56 = load i64, ptr %55, align 8
  %57 = load ptr, ptr %7, align 8
  %58 = getelementptr inbounds nuw %struct.gres_job_state, ptr %57, i32 0, i32 6
  %59 = load i64, ptr %58, align 8
  %60 = add i64 %59, %56
  store i64 %60, ptr %58, align 8
  %61 = load ptr, ptr %8, align 8
  %62 = getelementptr inbounds nuw %struct.gres_job_state, ptr %61, i32 0, i32 7
  %63 = load i64, ptr %62, align 8
  %64 = load ptr, ptr %7, align 8
  %65 = getelementptr inbounds nuw %struct.gres_job_state, ptr %64, i32 0, i32 7
  %66 = load i64, ptr %65, align 8
  %67 = add i64 %66, %63
  store i64 %67, ptr %65, align 8
  store i32 0, ptr %3, align 4
  store i32 1, ptr %9, align 4
  br label %68

68:                                               ; preds = %36, %19
  call void @llvm.lifetime.end.p0(i64 8, ptr %8) #13
  call void @llvm.lifetime.end.p0(i64 8, ptr %7) #13
  call void @llvm.lifetime.end.p0(i64 8, ptr %6) #13
  %69 = load i32, ptr %3, align 4
  ret i32 %69
}