; Function Attrs: mustprogress nofree norecurse nosync nounwind willreturn memory(read, argmem: readwrite, inaccessiblemem: none) uwtable
define internal noundef i32 @_get_req_gres(ptr noundef readonly captures(none) %0, ptr noundef captures(none) %1) #15 {
  %3 = getelementptr inbounds nuw i8, ptr %0, i64 8
  %4 = load ptr, ptr %3, align 8
  %5 = getelementptr inbounds nuw i8, ptr %4, i64 56
  %6 = load i64, ptr %5, align 8
  %.not = icmp eq i64 %6, 0
  br i1 %.not, label %30, label %7

7:                                                ; preds = %2
  %8 = getelementptr inbounds nuw i8, ptr %1, i64 56
  %9 = load i64, ptr %8, align 8
  %. = tail call i64 @llvm.umax.i64(i64 %9, i64 %6)
  store i64 %., ptr %8, align 8
  %10 = getelementptr inbounds nuw i8, ptr %4, i64 24
  %11 = load i64, ptr %10, align 8
  %12 = getelementptr inbounds nuw i8, ptr %1, i64 24
  %13 = load i64, ptr %12, align 8
  %14 = add i64 %13, %11
  store i64 %14, ptr %12, align 8
  %15 = getelementptr inbounds nuw i8, ptr %4, i64 32
  %16 = load i64, ptr %15, align 8
  %17 = getelementptr inbounds nuw i8, ptr %1, i64 32
  %18 = load i64, ptr %17, align 8
  %19 = add i64 %18, %16
  store i64 %19, ptr %17, align 8
  %20 = getelementptr inbounds nuw i8, ptr %4, i64 40
  %21 = load i64, ptr %20, align 8
  %22 = getelementptr inbounds nuw i8, ptr %1, i64 40
  %23 = load i64, ptr %22, align 8
  %24 = add i64 %23, %21
  store i64 %24, ptr %22, align 8
  %25 = getelementptr inbounds nuw i8, ptr %4, i64 48
  %26 = load i64, ptr %25, align 8
  %27 = getelementptr inbounds nuw i8, ptr %1, i64 48
  %28 = load i64, ptr %27, align 8
  %29 = add i64 %28, %26
  store i64 %29, ptr %27, align 8
  br label %30

30:                                               ; preds = %2, %7
  ret i32 0
}